target datalayout = "e-m:e-p270:32:32-p271:32:32-p272:64:64-i64:64-i128:128-f80:128-n8:16:32:64-S128"
target triple = "x86_64-pc-linux-gnu"

%struct.nlist_t = type { ptr, i64 }
%struct.elist = type { ptr, i64 }
%struct.Agobj_s = type { %struct.Agtag_s, ptr }
%struct.Agtag_s = type { i32, i64 }
%struct.Agrec_s = type { ptr, ptr }
%struct.boxf = type { %struct.pointf_s, %struct.pointf_s }
%struct.pointf_s = type { double, double }
%struct.Agnodeinfo_t = type { %struct.Agrec_s, ptr, ptr, %struct.pointf_s, double, double, %struct.boxf, double, double, double, double, double, ptr, ptr, ptr, i8, i8, i8, i8, i32, i32, i32, ptr, double, i8, i8, ptr, ptr, i8, i64, i8, i8, i8, ptr, ptr, %struct.elist, %struct.elist, %struct.elist, %struct.elist, %struct.elist, ptr, i32, ptr, i32, i32, double, %struct.elist, %struct.elist, %struct.elist, %struct.elist, ptr, i32, i32, i32, [1 x double] }
%struct.Agedgeinfo_t = type { %struct.Agrec_s, ptr, %struct.port, %struct.port, ptr, ptr, ptr, ptr, i8, i8, i8, i8, i8, ptr, ptr, double, double, %struct.Ppoly_t, i8, i8, i16, i32, i32, i32, i16, i32, ptr }
%struct.port = type { %struct.pointf_s, double, ptr, i8, i8, i8, i8, i8, i8, ptr }
%struct.Ppoly_t = type { ptr, i64 }
%struct.Agedge_s = type { %struct.Agobj_s, %struct.dtlink_s_, %struct.dtlink_s_, ptr }
%struct.dtlink_s_ = type { ptr, %union.anon }
%union.anon = type { ptr }

@Tree_node = internal global %struct.nlist_t zeroinitializer, align 8
@Tree_edge = internal global %struct.elist zeroinitializer, align 8
@.str.10 = private unnamed_addr constant [34 x i8] c"add_tree_edge: missing tree edge\0A\00", align 1
@.str.11 = private unnamed_addr constant [35 x i8] c"add_tree_edge: empty outedge list\0A\00", align 1
@.str.12 = private unnamed_addr constant [34 x i8] c"add_tree_edge: empty inedge list\0A\00", align 1

; Function Attrs: nounwind uwtable
define internal i32 @add_tree_edge(ptr noundef %0) #0 {
  %2 = alloca i32, align 4
  %3 = alloca ptr, align 8
  %4 = alloca ptr, align 8
  %5 = alloca i32, align 4
  store ptr %0, ptr %3, align 8, !tbaa !19
  call void @llvm.lifetime.start.p0(i64 8, ptr %4) #14
  %6 = load ptr, ptr %3, align 8, !tbaa !19
  %7 = getelementptr inbounds nuw %struct.Agobj_s, ptr %6, i32 0, i32 1
  %8 = load ptr, ptr %7, align 8, !tbaa !27
  %9 = getelementptr inbounds nuw %struct.Agedgeinfo_t, ptr %8, i32 0, i32 23
  %10 = load i32, ptr %9, align 4, !tbaa !71
  %11 = icmp sge i32 %10, 0
  br i1 %11, label %12, label %13

12:                                               ; preds = %1
  call void (ptr, ...) @agerrorf(ptr noundef @.str.10)
  store i32 -1, ptr %2, align 4
  store i32 1, ptr %5, align 4
  br label %231

13:                                               ; preds = %1
  %14 = load i64, ptr getelementptr inbounds nuw (%struct.elist, ptr @Tree_edge, i32 0, i32 1), align 8, !tbaa !104
  %15 = trunc i64 %14 to i32
  %16 = load ptr, ptr %3, align 8, !tbaa !19
  %17 = getelementptr inbounds nuw %struct.Agobj_s, ptr %16, i32 0, i32 1
  %18 = load ptr, ptr %17, align 8, !tbaa !27
  %19 = getelementptr inbounds nuw %struct.Agedgeinfo_t, ptr %18, i32 0, i32 23
  store i32 %15, ptr %19, align 4, !tbaa !71
  %20 = load ptr, ptr %3, align 8, !tbaa !19
  %21 = load ptr, ptr @Tree_edge, align 8, !tbaa !62
  %22 = load i64, ptr getelementptr inbounds nuw (%struct.elist, ptr @Tree_edge, i32 0, i32 1), align 8, !tbaa !104
  %23 = add i64 %22, 1
  store i64 %23, ptr getelementptr inbounds nuw (%struct.elist, ptr @Tree_edge, i32 0, i32 1), align 8, !tbaa !104
  %24 = getelementptr inbounds nuw ptr, ptr %21, i64 %22
  store ptr %20, ptr %24, align 8, !tbaa !19
  %25 = load ptr, ptr %3, align 8, !tbaa !19
  %26 = getelementptr inbounds nuw %struct.Agobj_s, ptr %25, i32 0, i32 0
  %27 = load i32, ptr %26, align 8
  %28 = and i32 %27, 3
  %29 = icmp eq i32 %28, 3
  br i1 %29, label %30, label %32

30:                                               ; preds = %13
  %31 = load ptr, ptr %3, align 8, !tbaa !19
  br label %35

32:                                               ; preds = %13
  %33 = load ptr, ptr %3, align 8, !tbaa !19
  %34 = getelementptr inbounds %struct.Agedge_s, ptr %33, i64 1
  br label %35

35:                                               ; preds = %32, %30
  %36 = phi ptr [ %31, %30 ], [ %34, %32 ]
  %37 = getelementptr inbounds nuw %struct.Agedge_s, ptr %36, i32 0, i32 3
  %38 = load ptr, ptr %37, align 8, !tbaa !72
  %39 = getelementptr inbounds nuw %struct.Agobj_s, ptr %38, i32 0, i32 1
  %40 = load ptr, ptr %39, align 8, !tbaa !27
  %41 = getelementptr inbounds nuw %struct.Agnodeinfo_t, ptr %40, i32 0, i32 29
  %42 = load i64, ptr %41, align 8, !tbaa !58
  %43 = icmp ne i64 %42, 0
  br i1 %43, label %63, label %44

44:                                               ; preds = %35
  %45 = load ptr, ptr %3, align 8, !tbaa !19
  %46 = getelementptr inbounds nuw %struct.Agobj_s, ptr %45, i32 0, i32 0
  %47 = load i32, ptr %46, align 8
  %48 = and i32 %47, 3
  %49 = icmp eq i32 %48, 3
  br i1 %49, label %50, label %52

50:                                               ; preds = %44
  %51 = load ptr, ptr %3, align 8, !tbaa !19
  br label %55

52:                                               ; preds = %44
  %53 = load ptr, ptr %3, align 8, !tbaa !19
  %54 = getelementptr inbounds %struct.Agedge_s, ptr %53, i64 1
  br label %55

55:                                               ; preds = %52, %50
  %56 = phi ptr [ %51, %50 ], [ %54, %52 ]
  %57 = getelementptr inbounds nuw %struct.Agedge_s, ptr %56, i32 0, i32 3
  %58 = load ptr, ptr %57, align 8, !tbaa !72
  %59 = load ptr, ptr @Tree_node, align 8, !tbaa !61
  %60 = load i64, ptr getelementptr inbounds nuw (%struct.nlist_t, ptr @Tree_node, i32 0, i32 1), align 8, !tbaa !114
  %61 = add i64 %60, 1
  store i64 %61, ptr getelementptr inbounds nuw (%struct.nlist_t, ptr @Tree_node, i32 0, i32 1), align 8, !tbaa !114
  %62 = getelementptr inbounds nuw ptr, ptr %59, i64 %60
  store ptr %58, ptr %62, align 8, !tbaa !48
  br label %63

63:                                               ; preds = %55, %35
  %64 = load ptr, ptr %3, align 8, !tbaa !19
  %65 = getelementptr inbounds nuw %struct.Agobj_s, ptr %64, i32 0, i32 0
  %66 = load i32, ptr %65, align 8
  %67 = and i32 %66, 3
  %68 = icmp eq i32 %67, 2
  br i1 %68, label %69, label %71

69:                                               ; preds = %63
  %70 = load ptr, ptr %3, align 8, !tbaa !19
  br label %74

71:                                               ; preds = %63
  %72 = load ptr, ptr %3, align 8, !tbaa !19
  %73 = getelementptr inbounds %struct.Agedge_s, ptr %72, i64 -1
  br label %74

74:                                               ; preds = %71, %69
  %75 = phi ptr [ %70, %69 ], [ %73, %71 ]
  %76 = getelementptr inbounds nuw %struct.Agedge_s, ptr %75, i32 0, i32 3
  %77 = load ptr, ptr %76, align 8, !tbaa !72
  %78 = getelementptr inbounds nuw %struct.Agobj_s, ptr %77, i32 0, i32 1
  %79 = load ptr, ptr %78, align 8, !tbaa !27
  %80 = getelementptr inbounds nuw %struct.Agnodeinfo_t, ptr %79, i32 0, i32 29
  %81 = load i64, ptr %80, align 8, !tbaa !58
  %82 = icmp ne i64 %81, 0
  br i1 %82, label %102, label %83

83:                                               ; preds = %74
  %84 = load ptr, ptr %3, align 8, !tbaa !19
  %85 = getelementptr inbounds nuw %struct.Agobj_s, ptr %84, i32 0, i32 0
  %86 = load i32, ptr %85, align 8
  %87 = and i32 %86, 3
  %88 = icmp eq i32 %87, 2
  br i1 %88, label %89, label %91

89:                                               ; preds = %83
  %90 = load ptr, ptr %3, align 8, !tbaa !19
  br label %94

91:                                               ; preds = %83
  %92 = load ptr, ptr %3, align 8, !tbaa !19
  %93 = getelementptr inbounds %struct.Agedge_s, ptr %92, i64 -1
  br label %94

94:                                               ; preds = %91, %89
  %95 = phi ptr [ %90, %89 ], [ %93, %91 ]
  %96 = getelementptr inbounds nuw %struct.Agedge_s, ptr %95, i32 0, i32 3
  %97 = load ptr, ptr %96, align 8, !tbaa !72
  %98 = load ptr, ptr @Tree_node, align 8, !tbaa !61
  %99 = load i64, ptr getelementptr inbounds nuw (%struct.nlist_t, ptr @Tree_node, i32 0, i32 1), align 8, !tbaa !114
  %100 = add i64 %99, 1
  store i64 %100, ptr getelementptr inbounds nuw (%struct.nlist_t, ptr @Tree_node, i32 0, i32 1), align 8, !tbaa !114
  %101 = getelementptr inbounds nuw ptr, ptr %98, i64 %99
  store ptr %97, ptr %101, align 8, !tbaa !48
  br label %102

102:                                              ; preds = %94, %74
  %103 = load ptr, ptr %3, align 8, !tbaa !19
  %104 = getelementptr inbounds nuw %struct.Agobj_s, ptr %103, i32 0, i32 0
  %105 = load i32, ptr %104, align 8
  %106 = and i32 %105, 3
  %107 = icmp eq i32 %106, 3
  br i1 %107, label %108, label %110

108:                                              ; preds = %102
  %109 = load ptr, ptr %3, align 8, !tbaa !19
  br label %113

110:                                              ; preds = %102
  %111 = load ptr, ptr %3, align 8, !tbaa !19
  %112 = getelementptr inbounds %struct.Agedge_s, ptr %111, i64 1
  br label %113

113:                                              ; preds = %110, %108
  %114 = phi ptr [ %109, %108 ], [ %112, %110 ]
  %115 = getelementptr inbounds nuw %struct.Agedge_s, ptr %114, i32 0, i32 3
  %116 = load ptr, ptr %115, align 8, !tbaa !72
  store ptr %116, ptr %4, align 8, !tbaa !48
  %117 = load ptr, ptr %4, align 8, !tbaa !48
  %118 = getelementptr inbounds nuw %struct.Agobj_s, ptr %117, i32 0, i32 1
  %119 = load ptr, ptr %118, align 8, !tbaa !27
  %120 = getelementptr inbounds nuw %struct.Agnodeinfo_t, ptr %119, i32 0, i32 29
  store i64 1, ptr %120, align 8, !tbaa !58
  %121 = load ptr, ptr %3, align 8, !tbaa !19
  %122 = load ptr, ptr %4, align 8, !tbaa !48
  %123 = getelementptr inbounds nuw %struct.Agobj_s, ptr %122, i32 0, i32 1
  %124 = load ptr, ptr %123, align 8, !tbaa !27
  %125 = getelementptr inbounds nuw %struct.Agnodeinfo_t, ptr %124, i32 0, i32 49
  %126 = getelementptr inbounds nuw %struct.elist, ptr %125, i32 0, i32 0
  %127 = load ptr, ptr %126, align 8, !tbaa !82
  %128 = load ptr, ptr %4, align 8, !tbaa !48
  %129 = getelementptr inbounds nuw %struct.Agobj_s, ptr %128, i32 0, i32 1
  %130 = load ptr, ptr %129, align 8, !tbaa !27
  %131 = getelementptr inbounds nuw %struct.Agnodeinfo_t, ptr %130, i32 0, i32 49
  %132 = getelementptr inbounds nuw %struct.elist, ptr %131, i32 0, i32 1
  %133 = load i64, ptr %132, align 8, !tbaa !83
  %134 = add i64 %133, 1
  store i64 %134, ptr %132, align 8, !tbaa !83
  %135 = getelementptr inbounds nuw ptr, ptr %127, i64 %133
  store ptr %121, ptr %135, align 8, !tbaa !19
  %136 = load ptr, ptr %4, align 8, !tbaa !48
  %137 = getelementptr inbounds nuw %struct.Agobj_s, ptr %136, i32 0, i32 1
  %138 = load ptr, ptr %137, align 8, !tbaa !27
  %139 = getelementptr inbounds nuw %struct.Agnodeinfo_t, ptr %138, i32 0, i32 49
  %140 = getelementptr inbounds nuw %struct.elist, ptr %139, i32 0, i32 0
  %141 = load ptr, ptr %140, align 8, !tbaa !82
  %142 = load ptr, ptr %4, align 8, !tbaa !48
  %143 = getelementptr inbounds nuw %struct.Agobj_s, ptr %142, i32 0, i32 1
  %144 = load ptr, ptr %143, align 8, !tbaa !27
  %145 = getelementptr inbounds nuw %struct.Agnodeinfo_t, ptr %144, i32 0, i32 49
  %146 = getelementptr inbounds nuw %struct.elist, ptr %145, i32 0, i32 1
  %147 = load i64, ptr %146, align 8, !tbaa !83
  %148 = getelementptr inbounds nuw ptr, ptr %141, i64 %147
  store ptr null, ptr %148, align 8, !tbaa !19
  %149 = load ptr, ptr %4, align 8, !tbaa !48
  %150 = getelementptr inbounds nuw %struct.Agobj_s, ptr %149, i32 0, i32 1
  %151 = load ptr, ptr %150, align 8, !tbaa !27
  %152 = getelementptr inbounds nuw %struct.Agnodeinfo_t, ptr %151, i32 0, i32 36
  %153 = getelementptr inbounds nuw %struct.elist, ptr %152, i32 0, i32 0
  %154 = load ptr, ptr %153, align 8, !tbaa !49
  %155 = load ptr, ptr %4, align 8, !tbaa !48
  %156 = getelementptr inbounds nuw %struct.Agobj_s, ptr %155, i32 0, i32 1
  %157 = load ptr, ptr %156, align 8, !tbaa !27
  %158 = getelementptr inbounds nuw %struct.Agnodeinfo_t, ptr %157, i32 0, i32 49
  %159 = getelementptr inbounds nuw %struct.elist, ptr %158, i32 0, i32 1
  %160 = load i64, ptr %159, align 8, !tbaa !83
  %161 = sub i64 %160, 1
  %162 = getelementptr inbounds nuw ptr, ptr %154, i64 %161
  %163 = load ptr, ptr %162, align 8, !tbaa !19
  %164 = icmp eq ptr %163, null
  br i1 %164, label %165, label %166

165:                                              ; preds = %113
  call void (ptr, ...) @agerrorf(ptr noundef @.str.11)
  store i32 -1, ptr %2, align 4
  store i32 1, ptr %5, align 4
  br label %231

166:                                              ; preds = %113
  %167 = load ptr, ptr %3, align 8, !tbaa !19
  %168 = getelementptr inbounds nuw %struct.Agobj_s, ptr %167, i32 0, i32 0
  %169 = load i32, ptr %168, align 8
  %170 = and i32 %169, 3
  %171 = icmp eq i32 %170, 2
  br i1 %171, label %172, label %174

172:                                              ; preds = %166
  %173 = load ptr, ptr %3, align 8, !tbaa !19
  br label %177

174:                                              ; preds = %166
  %175 = load ptr, ptr %3, align 8, !tbaa !19
  %176 = getelementptr inbounds %struct.Agedge_s, ptr %175, i64 -1
  br label %177

177:                                              ; preds = %174, %172
  %178 = phi ptr [ %173, %172 ], [ %176, %174 ]
  %179 = getelementptr inbounds nuw %struct.Agedge_s, ptr %178, i32 0, i32 3
  %180 = load ptr, ptr %179, align 8, !tbaa !72
  store ptr %180, ptr %4, align 8, !tbaa !48
  %181 = load ptr, ptr %4, align 8, !tbaa !48
  %182 = getelementptr inbounds nuw %struct.Agobj_s, ptr %181, i32 0, i32 1
  %183 = load ptr, ptr %182, align 8, !tbaa !27
  %184 = getelementptr inbounds nuw %struct.Agnodeinfo_t, ptr %183, i32 0, i32 29
  store i64 1, ptr %184, align 8, !tbaa !58
  %185 = load ptr, ptr %3, align 8, !tbaa !19
  %186 = load ptr, ptr %4, align 8, !tbaa !48
  %187 = getelementptr inbounds nuw %struct.Agobj_s, ptr %186, i32 0, i32 1
  %188 = load ptr, ptr %187, align 8, !tbaa !27
  %189 = getelementptr inbounds nuw %struct.Agnodeinfo_t, ptr %188, i32 0, i32 48
  %190 = getelementptr inbounds nuw %struct.elist, ptr %189, i32 0, i32 0
  %191 = load ptr, ptr %190, align 8, !tbaa !79
  %192 = load ptr, ptr %4, align 8, !tbaa !48
  %193 = getelementptr inbounds nuw %struct.Agobj_s, ptr %192, i32 0, i32 1
  %194 = load ptr, ptr %193, align 8, !tbaa !27
  %195 = getelementptr inbounds nuw %struct.Agnodeinfo_t, ptr %194, i32 0, i32 48
  %196 = getelementptr inbounds nuw %struct.elist, ptr %195, i32 0, i32 1
  %197 = load i64, ptr %196, align 8, !tbaa !80
  %198 = add i64 %197, 1
  store i64 %198, ptr %196, align 8, !tbaa !80
  %199 = getelementptr inbounds nuw ptr, ptr %191, i64 %197
  store ptr %185, ptr %199, align 8, !tbaa !19
  %200 = load ptr, ptr %4, align 8, !tbaa !48
  %201 = getelementptr inbounds nuw %struct.Agobj_s, ptr %200, i32 0, i32 1
  %202 = load ptr, ptr %201, align 8, !tbaa !27
  %203 = getelementptr inbounds nuw %struct.Agnodeinfo_t, ptr %202, i32 0, i32 48
  %204 = getelementptr inbounds nuw %struct.elist, ptr %203, i32 0, i32 0
  %205 = load ptr, ptr %204, align 8, !tbaa !79
  %206 = load ptr, ptr %4, align 8, !tbaa !48
  %207 = getelementptr inbounds nuw %struct.Agobj_s, ptr %206, i32 0, i32 1
  %208 = load ptr, ptr %207, align 8, !tbaa !27
  %209 = getelementptr inbounds nuw %struct.Agnodeinfo_t, ptr %208, i32 0, i32 48
  %210 = getelementptr inbounds nuw %struct.elist, ptr %209, i32 0, i32 1
  %211 = load i64, ptr %210, align 8, !tbaa !80
  %212 = getelementptr inbounds nuw ptr, ptr %205, i64 %211
  store ptr null, ptr %212, align 8, !tbaa !19
  %213 = load ptr, ptr %4, align 8, !tbaa !48
  %214 = getelementptr inbounds nuw %struct.Agobj_s, ptr %213, i32 0, i32 1
  %215 = load ptr, ptr %214, align 8, !tbaa !27
  %216 = getelementptr inbounds nuw %struct.Agnodeinfo_t, ptr %215, i32 0, i32 35
  %217 = getelementptr inbounds nuw %struct.elist, ptr %216, i32 0, i32 0
  %218 = load ptr, ptr %217, align 8, !tbaa !64
  %219 = load ptr, ptr %4, align 8, !tbaa !48
  %220 = getelementptr inbounds nuw %struct.Agobj_s, ptr %219, i32 0, i32 1
  %221 = load ptr, ptr %220, align 8, !tbaa !27
  %222 = getelementptr inbounds nuw %struct.Agnodeinfo_t, ptr %221, i32 0, i32 48
  %223 = getelementptr inbounds nuw %struct.elist, ptr %222, i32 0, i32 1
  %224 = load i64, ptr %223, align 8, !tbaa !80
  %225 = sub i64 %224, 1
  %226 = getelementptr inbounds nuw ptr, ptr %218, i64 %225
  %227 = load ptr, ptr %226, align 8, !tbaa !19
  %228 = icmp eq ptr %227, null
  br i1 %228, label %229, label %230

229:                                              ; preds = %177
  call void (ptr, ...) @agerrorf(ptr noundef @.str.12)
  store i32 -1, ptr %2, align 4
  store i32 1, ptr %5, align 4
  br label %231

230:                                              ; preds = %177
  store i32 0, ptr %2, align 4
  store i32 1, ptr %5, align 4
  br label %231

231:                                              ; preds = %230, %229, %165, %12
  call void @llvm.lifetime.end.p0(i64 8, ptr %4) #14
  %232 = load i32, ptr %2, align 4
  ret i32 %232
}