; Function Attrs: nounwind uwtable
define internal fastcc range(i32 -1, 1) i32 @add_tree_edge(ptr noundef nonnull %0) unnamed_addr #0 {
  %2 = getelementptr inbounds nuw i8, ptr %0, i64 16
  %3 = load ptr, ptr %2, align 8, !tbaa !6
  %4 = getelementptr inbounds nuw i8, ptr %3, i64 220
  %5 = load i32, ptr %4, align 4, !tbaa !55
  %6 = icmp sgt i32 %5, -1
  br i1 %6, label %.sink.split, label %7

7:                                                ; preds = %1
  %8 = load i64, ptr @Tree_edge.1, align 8, !tbaa !107
  %9 = trunc i64 %8 to i32
  store i32 %9, ptr %4, align 4, !tbaa !55
  %10 = load ptr, ptr @Tree_edge.0, align 8, !tbaa !44
  %11 = add i64 %8, 1
  store i64 %11, ptr @Tree_edge.1, align 8, !tbaa !107
  %12 = getelementptr inbounds nuw ptr, ptr %10, i64 %8
  store ptr %0, ptr %12, align 8, !tbaa !30
  %13 = load i32, ptr %0, align 8
  %14 = and i32 %13, 3
  %15 = icmp eq i32 %14, 3
  %16 = getelementptr inbounds nuw i8, ptr %0, i64 64
  %17 = select i1 %15, ptr %0, ptr %16
  %18 = getelementptr inbounds nuw i8, ptr %17, i64 56
  %19 = load ptr, ptr %18, align 8, !tbaa !56
  %20 = getelementptr inbounds nuw i8, ptr %19, i64 16
  %21 = load ptr, ptr %20, align 8, !tbaa !6
  %22 = getelementptr inbounds nuw i8, ptr %21, i64 224
  %23 = load i64, ptr %22, align 8, !tbaa !38
  %.not = icmp eq i64 %23, 0
  br i1 %.not, label %24, label %29

24:                                               ; preds = %7
  %25 = load ptr, ptr @Tree_node.0, align 8, !tbaa !41
  %26 = load i64, ptr @Tree_node.1, align 8, !tbaa !122
  %27 = add i64 %26, 1
  store i64 %27, ptr @Tree_node.1, align 8, !tbaa !122
  %28 = getelementptr inbounds nuw ptr, ptr %25, i64 %26
  store ptr %19, ptr %28, align 8, !tbaa !13
  %.pre = load i32, ptr %0, align 8
  %.pre39 = and i32 %.pre, 3
  br label %29

29:                                               ; preds = %24, %7
  %.pre-phi = phi i32 [ %.pre39, %24 ], [ %14, %7 ]
  %30 = icmp eq i32 %.pre-phi, 2
  %31 = getelementptr inbounds i8, ptr %0, i64 -64
  %32 = select i1 %30, ptr %0, ptr %31
  %33 = getelementptr inbounds nuw i8, ptr %32, i64 56
  %34 = load ptr, ptr %33, align 8, !tbaa !56
  %35 = getelementptr inbounds nuw i8, ptr %34, i64 16
  %36 = load ptr, ptr %35, align 8, !tbaa !6
  %37 = getelementptr inbounds nuw i8, ptr %36, i64 224
  %38 = load i64, ptr %37, align 8, !tbaa !38
  %.not37 = icmp eq i64 %38, 0
  br i1 %.not37, label %39, label %44

39:                                               ; preds = %29
  %40 = load ptr, ptr @Tree_node.0, align 8, !tbaa !41
  %41 = load i64, ptr @Tree_node.1, align 8, !tbaa !122
  %42 = add i64 %41, 1
  store i64 %42, ptr @Tree_node.1, align 8, !tbaa !122
  %43 = getelementptr inbounds nuw ptr, ptr %40, i64 %41
  store ptr %34, ptr %43, align 8, !tbaa !13
  %.pre38 = load i32, ptr %0, align 8
  %.pre40 = and i32 %.pre38, 3
  br label %44

44:                                               ; preds = %39, %29
  %.pre-phi41 = phi i32 [ %.pre40, %39 ], [ %.pre-phi, %29 ]
  %45 = icmp eq i32 %.pre-phi41, 3
  %46 = select i1 %45, ptr %0, ptr %16
  %47 = getelementptr inbounds nuw i8, ptr %46, i64 56
  %48 = load ptr, ptr %47, align 8, !tbaa !56
  %49 = getelementptr inbounds nuw i8, ptr %48, i64 16
  %50 = load ptr, ptr %49, align 8, !tbaa !6
  %51 = getelementptr inbounds nuw i8, ptr %50, i64 224
  store i64 1, ptr %51, align 8, !tbaa !38
  %52 = getelementptr inbounds nuw i8, ptr %50, i64 424
  %53 = load ptr, ptr %52, align 8, !tbaa !66
  %54 = getelementptr inbounds nuw i8, ptr %50, i64 432
  %55 = load i64, ptr %54, align 8, !tbaa !67
  %56 = add i64 %55, 1
  store i64 %56, ptr %54, align 8, !tbaa !67
  %57 = getelementptr inbounds nuw ptr, ptr %53, i64 %55
  store ptr %0, ptr %57, align 8, !tbaa !30
  %58 = getelementptr inbounds nuw ptr, ptr %53, i64 %56
  store ptr null, ptr %58, align 8, !tbaa !30
  %59 = getelementptr inbounds nuw i8, ptr %50, i64 272
  %60 = load ptr, ptr %59, align 8, !tbaa !15
  %61 = getelementptr ptr, ptr %60, i64 %56
  %62 = getelementptr i8, ptr %61, i64 -8
  %63 = load ptr, ptr %62, align 8, !tbaa !30
  %64 = icmp eq ptr %63, null
  br i1 %64, label %.sink.split, label %65

65:                                               ; preds = %44
  %66 = load i32, ptr %0, align 8
  %67 = and i32 %66, 3
  %68 = icmp eq i32 %67, 2
  %69 = select i1 %68, ptr %0, ptr %31
  %70 = getelementptr inbounds nuw i8, ptr %69, i64 56
  %71 = load ptr, ptr %70, align 8, !tbaa !56
  %72 = getelementptr inbounds nuw i8, ptr %71, i64 16
  %73 = load ptr, ptr %72, align 8, !tbaa !6
  %74 = getelementptr inbounds nuw i8, ptr %73, i64 224
  store i64 1, ptr %74, align 8, !tbaa !38
  %75 = getelementptr inbounds nuw i8, ptr %73, i64 408
  %76 = load ptr, ptr %75, align 8, !tbaa !63
  %77 = getelementptr inbounds nuw i8, ptr %73, i64 416
  %78 = load i64, ptr %77, align 8, !tbaa !64
  %79 = add i64 %78, 1
  store i64 %79, ptr %77, align 8, !tbaa !64
  %80 = getelementptr inbounds nuw ptr, ptr %76, i64 %78
  store ptr %0, ptr %80, align 8, !tbaa !30
  %81 = getelementptr inbounds nuw ptr, ptr %76, i64 %79
  store ptr null, ptr %81, align 8, !tbaa !30
  %82 = getelementptr inbounds nuw i8, ptr %73, i64 256
  %83 = load ptr, ptr %82, align 8, !tbaa !47
  %84 = getelementptr ptr, ptr %83, i64 %79
  %85 = getelementptr i8, ptr %84, i64 -8
  %86 = load ptr, ptr %85, align 8, !tbaa !30
  %87 = icmp eq ptr %86, null
  br i1 %87, label %.sink.split, label %88

.sink.split:                                      ; preds = %65, %44, %1
  %.str.12.sink = phi ptr [ @.str.10, %1 ], [ @.str.11, %44 ], [ @.str.12, %65 ]
  tail call void (ptr, ...) @agerrorf(ptr noundef nonnull %.str.12.sink) #21
  br label %88

88:                                               ; preds = %.sink.split, %65
  %.0 = phi i32 [ 0, %65 ], [ -1, %.sink.split ]
  ret i32 %.0
}